target datalayout = "e-m:e-p270:32:32-p271:32:32-p272:64:64-i64:64-i128:128-f80:128-n8:16:32:64-S128"
target triple = "x86_64-pc-linux-gnu"

%class.GPUProgram = type <{ ptr, ptr, ptr, i32, [4 x i8], %"class.std::map", %"class.std::map", %"class.std::map.0", i32, i32, i32, [4 x i8] }>
%"class.std::map" = type { %"class.std::_Rb_tree" }
%"class.std::_Rb_tree" = type { %"struct.std::_Rb_tree<std::__cxx11::basic_string<char>, std::pair<const std::__cxx11::basic_string<char>, int>, std::_Select1st<std::pair<const std::__cxx11::basic_string<char>, int>>, std::less<std::__cxx11::basic_string<char>>>::_Rb_tree_impl" }
%"struct.std::_Rb_tree<std::__cxx11::basic_string<char>, std::pair<const std::__cxx11::basic_string<char>, int>, std::_Select1st<std::pair<const std::__cxx11::basic_string<char>, int>>, std::less<std::__cxx11::basic_string<char>>>::_Rb_tree_impl" = type { %"struct.std::_Rb_tree_key_compare", %"struct.std::_Rb_tree_header" }
%"struct.std::_Rb_tree_key_compare" = type { %"struct.std::less" }
%"struct.std::less" = type { i8 }
%"struct.std::_Rb_tree_header" = type { %"struct.std::_Rb_tree_node_base", i64 }
%"struct.std::_Rb_tree_node_base" = type { i32, ptr, ptr, ptr }
%"class.std::map.0" = type { %"class.std::_Rb_tree.1" }
%"class.std::_Rb_tree.1" = type { %"struct.std::_Rb_tree<unsigned int, std::pair<const unsigned int, std::pair<unsigned int, unsigned int>>, std::_Select1st<std::pair<const unsigned int, std::pair<unsigned int, unsigned int>>>, std::less<unsigned int>>::_Rb_tree_impl" }
%"struct.std::_Rb_tree<unsigned int, std::pair<const unsigned int, std::pair<unsigned int, unsigned int>>, std::_Select1st<std::pair<const unsigned int, std::pair<unsigned int, unsigned int>>>, std::less<unsigned int>>::_Rb_tree_impl" = type { %"struct.std::_Rb_tree_key_compare.5", %"struct.std::_Rb_tree_header" }
%"struct.std::_Rb_tree_key_compare.5" = type { %"struct.std::less.6" }
%"struct.std::less.6" = type { i8 }
%"class.std::__cxx11::basic_string" = type { %"struct.std::__cxx11::basic_string<char>::_Alloc_hider", i64, %union.anon }
%"struct.std::__cxx11::basic_string<char>::_Alloc_hider" = type { ptr }
%union.anon = type { i64, [8 x i8] }
%class.GPUShader = type <{ %"class.std::__cxx11::basic_string", i32, i32, i8, i8, [6 x i8] }>

@__glewProgramParameteriEXT = external global ptr, align 8

; Function Attrs: mustprogress nounwind uwtable
define linkonce_odr noundef i32 @_ZNK9GPUShader2idEv(ptr noundef nonnull align 8 dereferenceable(42) %0) #5 comdat align 2 {
  %2 = alloca ptr, align 8
  store ptr %0, ptr %2, align 8
  %3 = load ptr, ptr %2, align 8
  %4 = getelementptr inbounds %class.GPUShader, ptr %3, i32 0, i32 2
  %5 = load i32, ptr %4, align 4
  ret i32 %5
}

; Function Attrs: mustprogress uwtable
define void @_ZN10GPUProgram21setGeometryParametersEiii(ptr noundef nonnull align 8 dereferenceable(188) %0, i32 noundef %1, i32 noundef %2, i32 noundef %3) #4 align 2 {
  %5 = alloca ptr, align 8
  %6 = alloca i32, align 4
  %7 = alloca i32, align 4
  %8 = alloca i32, align 4
  store ptr %0, ptr %5, align 8
  store i32 %1, ptr %6, align 4
  store i32 %2, ptr %7, align 4
  store i32 %3, ptr %8, align 4
  %9 = load ptr, ptr %5, align 8
  %10 = getelementptr inbounds %class.GPUProgram, ptr %9, i32 0, i32 2
  %11 = load ptr, ptr %10, align 8
  %12 = icmp ne ptr %11, null
  br i1 %12, label %13, label %31

13:                                               ; preds = %4
  %14 = getelementptr inbounds %class.GPUProgram, ptr %9, i32 0, i32 2
  %15 = load ptr, ptr %14, align 8
  %16 = call noundef i32 @_ZNK9GPUShader2idEv(ptr noundef nonnull align 8 dereferenceable(42) %15)
  %17 = icmp ne i32 %16, 0
  br i1 %17, label %18, label %31

18:                                               ; preds = %13
  %19 = load ptr, ptr @__glewProgramParameteriEXT, align 8
  %20 = getelementptr inbounds %class.GPUProgram, ptr %9, i32 0, i32 3
  %21 = load i32, ptr %20, align 8
  %22 = load i32, ptr %6, align 4
  call void %19(i32 noundef %21, i32 noundef 36315, i32 noundef %22)
  %23 = load ptr, ptr @__glewProgramParameteriEXT, align 8
  %24 = getelementptr inbounds %class.GPUProgram, ptr %9, i32 0, i32 3
  %25 = load i32, ptr %24, align 8
  %26 = load i32, ptr %7, align 4
  call void %23(i32 noundef %25, i32 noundef 36316, i32 noundef %26)
  %27 = load ptr, ptr @__glewProgramParameteriEXT, align 8
  %28 = getelementptr inbounds %class.GPUProgram, ptr %9, i32 0, i32 3
  %29 = load i32, ptr %28, align 8
  %30 = load i32, ptr %8, align 4
  call void %27(i32 noundef %29, i32 noundef 36314, i32 noundef %30)
  br label %31

31:                                               ; preds = %18, %13, %4
  ret void
}