; Function Attrs: mustprogress uwtable
define void @_ZN10GPUProgram21setGeometryParametersEiii(ptr noundef nonnull readonly align 8 captures(none) dereferenceable(188) %0, i32 noundef %1, i32 noundef %2, i32 noundef %3) local_unnamed_addr #3 align 2 {
  %5 = getelementptr inbounds nuw i8, ptr %0, i64 16
  %6 = load ptr, ptr %5, align 8
  %.not = icmp eq ptr %6, null
  br i1 %.not, label %18, label %7

7:                                                ; preds = %4
  %8 = getelementptr inbounds nuw i8, ptr %6, i64 36
  %9 = load i32, ptr %8, align 4
  %.not3 = icmp eq i32 %9, 0
  br i1 %.not3, label %18, label %10

10:                                               ; preds = %7
  %11 = load ptr, ptr @__glewProgramParameteriEXT, align 8
  %12 = getelementptr inbounds nuw i8, ptr %0, i64 24
  %13 = load i32, ptr %12, align 8
  tail call void %11(i32 noundef %13, i32 noundef 36315, i32 noundef %1)
  %14 = load ptr, ptr @__glewProgramParameteriEXT, align 8
  %15 = load i32, ptr %12, align 8
  tail call void %14(i32 noundef %15, i32 noundef 36316, i32 noundef %2)
  %16 = load ptr, ptr @__glewProgramParameteriEXT, align 8
  %17 = load i32, ptr %12, align 8
  tail call void %16(i32 noundef %17, i32 noundef 36314, i32 noundef %3)
  br label %18

18:                                               ; preds = %10, %7, %4
  ret void
}